target datalayout = "e-m:e-p270:32:32-p271:32:32-p272:64:64-i64:64-i128:128-f80:128-n8:16:32:64-S128"
target triple = "x86_64-pc-linux-gnu"

%struct.zstream_funcs = type { ptr, ptr, ptr }
%struct.zstream = type { i64, i64, i64, i64, %struct.z_stream_s, ptr }
%struct.z_stream_s = type { ptr, i32, i64, ptr, i32, i64, ptr, ptr, ptr, ptr, ptr, i32, i64, i64 }
%struct.gzfile = type { %struct.zstream, i64, i32, i32, i64, i64, i64, i64, i32, i32, i64, ptr, ptr, ptr, ptr, i64, i64 }

@.str.20 = private unnamed_addr constant [7 x i8] c"1.2.11\00", align 1
@inflate_funcs = internal constant %struct.zstream_funcs { ptr @inflateReset, ptr @inflateEnd, ptr @inflate }, align 8

; Function Attrs: nounwind sspstrong uwtable
define internal void @zstream_init(ptr noundef %0, ptr noundef %1) #0 {
  %3 = alloca ptr, align 8
  %4 = alloca ptr, align 8
  store ptr %0, ptr %3, align 8, !tbaa !21
  store ptr %1, ptr %4, align 8, !tbaa !114
  %5 = load ptr, ptr %3, align 8, !tbaa !21
  %6 = getelementptr inbounds nuw %struct.zstream, ptr %5, i32 0, i32 0
  store i64 0, ptr %6, align 8, !tbaa !33
  %7 = load ptr, ptr %3, align 8, !tbaa !21
  %8 = getelementptr inbounds nuw %struct.zstream, ptr %7, i32 0, i32 1
  store i64 4, ptr %8, align 8, !tbaa !35
  %9 = load ptr, ptr %3, align 8, !tbaa !21
  %10 = getelementptr inbounds nuw %struct.zstream, ptr %9, i32 0, i32 2
  store i64 4, ptr %10, align 8, !tbaa !28
  %11 = call i64 @rb_mutex_new()
  %12 = load ptr, ptr %3, align 8, !tbaa !21
  %13 = getelementptr inbounds nuw %struct.zstream, ptr %12, i32 0, i32 3
  store i64 %11, ptr %13, align 8, !tbaa !40
  %14 = load ptr, ptr %3, align 8, !tbaa !21
  %15 = getelementptr inbounds nuw %struct.zstream, ptr %14, i32 0, i32 4
  %16 = getelementptr inbounds nuw %struct.z_stream_s, ptr %15, i32 0, i32 8
  store ptr @zlib_mem_alloc, ptr %16, align 8, !tbaa !115
  %17 = load ptr, ptr %3, align 8, !tbaa !21
  %18 = getelementptr inbounds nuw %struct.zstream, ptr %17, i32 0, i32 4
  %19 = getelementptr inbounds nuw %struct.z_stream_s, ptr %18, i32 0, i32 9
  store ptr @zlib_mem_free, ptr %19, align 8, !tbaa !116
  %20 = load ptr, ptr %3, align 8, !tbaa !21
  %21 = getelementptr inbounds nuw %struct.zstream, ptr %20, i32 0, i32 4
  %22 = getelementptr inbounds nuw %struct.z_stream_s, ptr %21, i32 0, i32 10
  store ptr null, ptr %22, align 8, !tbaa !111
  %23 = load ptr, ptr %3, align 8, !tbaa !21
  %24 = getelementptr inbounds nuw %struct.zstream, ptr %23, i32 0, i32 4
  %25 = getelementptr inbounds nuw %struct.z_stream_s, ptr %24, i32 0, i32 6
  store ptr null, ptr %25, align 8, !tbaa !34
  %26 = load ptr, ptr %3, align 8, !tbaa !21
  %27 = getelementptr inbounds nuw %struct.zstream, ptr %26, i32 0, i32 4
  %28 = getelementptr inbounds nuw %struct.z_stream_s, ptr %27, i32 0, i32 0
  store ptr null, ptr %28, align 8, !tbaa !109
  %29 = load ptr, ptr %3, align 8, !tbaa !21
  %30 = getelementptr inbounds nuw %struct.zstream, ptr %29, i32 0, i32 4
  %31 = getelementptr inbounds nuw %struct.z_stream_s, ptr %30, i32 0, i32 1
  store i32 0, ptr %31, align 8, !tbaa !110
  %32 = load ptr, ptr %3, align 8, !tbaa !21
  %33 = getelementptr inbounds nuw %struct.zstream, ptr %32, i32 0, i32 4
  %34 = getelementptr inbounds nuw %struct.z_stream_s, ptr %33, i32 0, i32 3
  store ptr null, ptr %34, align 8, !tbaa !96
  %35 = load ptr, ptr %3, align 8, !tbaa !21
  %36 = getelementptr inbounds nuw %struct.zstream, ptr %35, i32 0, i32 4
  %37 = getelementptr inbounds nuw %struct.z_stream_s, ptr %36, i32 0, i32 4
  store i32 0, ptr %37, align 8, !tbaa !23
  %38 = load ptr, ptr %4, align 8, !tbaa !114
  %39 = load ptr, ptr %3, align 8, !tbaa !21
  %40 = getelementptr inbounds nuw %struct.zstream, ptr %39, i32 0, i32 5
  store ptr %38, ptr %40, align 8, !tbaa !93
  ret void
}

; Function Attrs: nounwind sspstrong uwtable
define internal void @gzfile_init(ptr noundef %0, ptr noundef %1, ptr noundef %2) #0 {
  %4 = alloca ptr, align 8
  %5 = alloca ptr, align 8
  %6 = alloca ptr, align 8
  store ptr %0, ptr %4, align 8, !tbaa !57
  store ptr %1, ptr %5, align 8, !tbaa !114
  store ptr %2, ptr %6, align 8, !tbaa !77
  %7 = load ptr, ptr %4, align 8, !tbaa !57
  %8 = getelementptr inbounds nuw %struct.gzfile, ptr %7, i32 0, i32 0
  %9 = load ptr, ptr %5, align 8, !tbaa !114
  call void @zstream_init(ptr noundef %8, ptr noundef %9)
  %10 = load ptr, ptr %4, align 8, !tbaa !57
  %11 = getelementptr inbounds nuw %struct.gzfile, ptr %10, i32 0, i32 0
  %12 = getelementptr inbounds nuw %struct.zstream, ptr %11, i32 0, i32 0
  %13 = load i64, ptr %12, align 8, !tbaa !59
  %14 = or i64 %13, 16
  store i64 %14, ptr %12, align 8, !tbaa !59
  %15 = load ptr, ptr %4, align 8, !tbaa !57
  %16 = getelementptr inbounds nuw %struct.gzfile, ptr %15, i32 0, i32 1
  store i64 4, ptr %16, align 8, !tbaa !46
  %17 = load ptr, ptr %4, align 8, !tbaa !57
  %18 = getelementptr inbounds nuw %struct.gzfile, ptr %17, i32 0, i32 2
  store i32 0, ptr %18, align 8, !tbaa !52
  %19 = load ptr, ptr %4, align 8, !tbaa !57
  %20 = getelementptr inbounds nuw %struct.gzfile, ptr %19, i32 0, i32 4
  store i64 0, ptr %20, align 8, !tbaa !51
  %21 = load ptr, ptr %4, align 8, !tbaa !57
  %22 = getelementptr inbounds nuw %struct.gzfile, ptr %21, i32 0, i32 3
  store i32 3, ptr %22, align 4, !tbaa !53
  %23 = load ptr, ptr %4, align 8, !tbaa !57
  %24 = getelementptr inbounds nuw %struct.gzfile, ptr %23, i32 0, i32 5
  store i64 4, ptr %24, align 8, !tbaa !54
  %25 = load ptr, ptr %4, align 8, !tbaa !57
  %26 = getelementptr inbounds nuw %struct.gzfile, ptr %25, i32 0, i32 6
  store i64 4, ptr %26, align 8, !tbaa !55
  %27 = call i64 @crc32_z(i64 noundef 0, ptr noundef null, i64 noundef 0)
  %28 = load ptr, ptr %4, align 8, !tbaa !57
  %29 = getelementptr inbounds nuw %struct.gzfile, ptr %28, i32 0, i32 7
  store i64 %27, ptr %29, align 8, !tbaa !50
  %30 = load ptr, ptr %4, align 8, !tbaa !57
  %31 = getelementptr inbounds nuw %struct.gzfile, ptr %30, i32 0, i32 9
  store i32 0, ptr %31, align 4, !tbaa !56
  %32 = load ptr, ptr %4, align 8, !tbaa !57
  %33 = getelementptr inbounds nuw %struct.gzfile, ptr %32, i32 0, i32 10
  store i64 0, ptr %33, align 8, !tbaa !139
  %34 = load ptr, ptr %6, align 8, !tbaa !77
  %35 = load ptr, ptr %4, align 8, !tbaa !57
  %36 = getelementptr inbounds nuw %struct.gzfile, ptr %35, i32 0, i32 11
  store ptr %34, ptr %36, align 8, !tbaa !130
  %37 = call ptr @rb_default_external_encoding()
  %38 = load ptr, ptr %4, align 8, !tbaa !57
  %39 = getelementptr inbounds nuw %struct.gzfile, ptr %38, i32 0, i32 12
  store ptr %37, ptr %39, align 8, !tbaa !75
  %40 = load ptr, ptr %4, align 8, !tbaa !57
  %41 = getelementptr inbounds nuw %struct.gzfile, ptr %40, i32 0, i32 13
  store ptr null, ptr %41, align 8, !tbaa !65
  %42 = load ptr, ptr %4, align 8, !tbaa !57
  %43 = getelementptr inbounds nuw %struct.gzfile, ptr %42, i32 0, i32 14
  store ptr null, ptr %43, align 8, !tbaa !140
  %44 = load ptr, ptr %4, align 8, !tbaa !57
  %45 = getelementptr inbounds nuw %struct.gzfile, ptr %44, i32 0, i32 8
  store i32 0, ptr %45, align 8, !tbaa !141
  %46 = load ptr, ptr %4, align 8, !tbaa !57
  %47 = getelementptr inbounds nuw %struct.gzfile, ptr %46, i32 0, i32 15
  store i64 4, ptr %47, align 8, !tbaa !131
  %48 = load ptr, ptr %4, align 8, !tbaa !57
  %49 = getelementptr inbounds nuw %struct.gzfile, ptr %48, i32 0, i32 16
  store i64 4, ptr %49, align 8, !tbaa !132
  ret void
}

; Function Attrs: nounwind sspstrong uwtable
define internal i64 @zlib_gunzip(i64 noundef %0, i64 noundef %1) #0 {
  %3 = alloca i64, align 8
  %4 = alloca i64, align 8
  %5 = alloca %struct.gzfile, align 8
  %6 = alloca ptr, align 8
  %7 = alloca i32, align 4
  store i64 %0, ptr %3, align 8, !tbaa !6
  store i64 %1, ptr %4, align 8, !tbaa !6
  call void @llvm.lifetime.start.p0(i64 264, ptr %5) #23
  call void @llvm.lifetime.start.p0(i64 8, ptr %6) #23
  store ptr %5, ptr %6, align 8, !tbaa !57
  call void @llvm.lifetime.start.p0(i64 4, ptr %7) #23
  %8 = call i64 @rb_string_value(ptr noundef %4)
  %9 = load ptr, ptr %6, align 8, !tbaa !57
  call void @gzfile_init(ptr noundef %9, ptr noundef @inflate_funcs, ptr noundef @zlib_gunzip_end)
  %10 = load ptr, ptr %6, align 8, !tbaa !57
  %11 = getelementptr inbounds nuw %struct.gzfile, ptr %10, i32 0, i32 0
  %12 = getelementptr inbounds nuw %struct.zstream, ptr %11, i32 0, i32 4
  %13 = call i32 @inflateInit2_(ptr noundef %12, i32 noundef -15, ptr noundef @.str.20, i32 noundef 112)
  store i32 %13, ptr %7, align 4, !tbaa !10
  %14 = load i32, ptr %7, align 4, !tbaa !10
  %15 = icmp ne i32 %14, 0
  br i1 %15, label %16, label %23

16:                                               ; preds = %2
  %17 = load i32, ptr %7, align 4, !tbaa !10
  %18 = load ptr, ptr %6, align 8, !tbaa !57
  %19 = getelementptr inbounds nuw %struct.gzfile, ptr %18, i32 0, i32 0
  %20 = getelementptr inbounds nuw %struct.zstream, ptr %19, i32 0, i32 4
  %21 = getelementptr inbounds nuw %struct.z_stream_s, ptr %20, i32 0, i32 6
  %22 = load ptr, ptr %21, align 8, !tbaa !64
  call void @raise_zlib_error(i32 noundef %17, ptr noundef %22) #26
  unreachable

23:                                               ; preds = %2
  %24 = load ptr, ptr %6, align 8, !tbaa !57
  %25 = getelementptr inbounds nuw %struct.gzfile, ptr %24, i32 0, i32 1
  store i64 36, ptr %25, align 8, !tbaa !46
  %26 = load i64, ptr %4, align 8, !tbaa !6
  %27 = load ptr, ptr %6, align 8, !tbaa !57
  %28 = getelementptr inbounds nuw %struct.gzfile, ptr %27, i32 0, i32 0
  %29 = getelementptr inbounds nuw %struct.zstream, ptr %28, i32 0, i32 2
  store i64 %26, ptr %29, align 8, !tbaa !76
  %30 = load ptr, ptr %6, align 8, !tbaa !57
  %31 = getelementptr inbounds nuw %struct.gzfile, ptr %30, i32 0, i32 0
  %32 = getelementptr inbounds nuw %struct.zstream, ptr %31, i32 0, i32 0
  %33 = load i64, ptr %32, align 8, !tbaa !59
  %34 = or i64 %33, 1
  store i64 %34, ptr %32, align 8, !tbaa !59
  %35 = load ptr, ptr %6, align 8, !tbaa !57
  %36 = ptrtoint ptr %35 to i64
  %37 = load ptr, ptr %6, align 8, !tbaa !57
  %38 = ptrtoint ptr %37 to i64
  %39 = call i64 @rb_ensure(ptr noundef @zlib_gunzip_run, i64 noundef %36, ptr noundef @zlib_gzip_ensure, i64 noundef %38)
  call void @llvm.lifetime.end.p0(i64 4, ptr %7) #23
  call void @llvm.lifetime.end.p0(i64 8, ptr %6) #23
  call void @llvm.lifetime.end.p0(i64 264, ptr %5) #23
  ret i64 %39
}