; Function Attrs: nounwind sspstrong uwtable
define internal i64 @zlib_gunzip(i64 %0, i64 noundef %1) #0 {
  %3 = alloca i64, align 8
  %4 = alloca %struct.gzfile, align 8
  store i64 %1, ptr %3, align 8, !tbaa !6
  call void @llvm.lifetime.start.p0(i64 264, ptr nonnull %4) #18
  %5 = call i64 @rb_string_value(ptr noundef nonnull %3) #18
  %6 = getelementptr inbounds nuw i8, ptr %4, i64 8
  store i64 4, ptr %6, align 8, !tbaa !43
  %7 = getelementptr inbounds nuw i8, ptr %4, i64 16
  store i64 4, ptr %7, align 8, !tbaa !51
  %8 = call i64 @rb_mutex_new() #18
  %9 = getelementptr inbounds nuw i8, ptr %4, i64 24
  store i64 %8, ptr %9, align 8, !tbaa !70
  %10 = getelementptr inbounds nuw i8, ptr %4, i64 32
  %11 = getelementptr inbounds nuw i8, ptr %4, i64 96
  store ptr @zlib_mem_alloc, ptr %11, align 8, !tbaa !71
  %12 = getelementptr inbounds nuw i8, ptr %4, i64 104
  store ptr @zlib_mem_free, ptr %12, align 8, !tbaa !72
  %13 = getelementptr inbounds nuw i8, ptr %4, i64 112
  store ptr null, ptr %13, align 8, !tbaa !73
  %14 = getelementptr inbounds nuw i8, ptr %4, i64 80
  store ptr null, ptr %14, align 8, !tbaa !59
  store ptr null, ptr %10, align 8, !tbaa !74
  %15 = getelementptr inbounds nuw i8, ptr %4, i64 40
  store i32 0, ptr %15, align 8, !tbaa !75
  %16 = getelementptr inbounds nuw i8, ptr %4, i64 56
  store ptr null, ptr %16, align 8, !tbaa !47
  %17 = getelementptr inbounds nuw i8, ptr %4, i64 64
  store i32 0, ptr %17, align 8, !tbaa !36
  %18 = getelementptr inbounds nuw i8, ptr %4, i64 144
  store ptr @inflate_funcs, ptr %18, align 8, !tbaa !56
  store i64 16, ptr %4, align 8, !tbaa !113
  %19 = getelementptr inbounds nuw i8, ptr %4, i64 152
  store i64 4, ptr %19, align 8, !tbaa !117
  %20 = getelementptr inbounds nuw i8, ptr %4, i64 160
  store i32 0, ptr %20, align 8, !tbaa !120
  %21 = getelementptr inbounds nuw i8, ptr %4, i64 168
  store i64 0, ptr %21, align 8, !tbaa !119
  %22 = getelementptr inbounds nuw i8, ptr %4, i64 164
  store i32 3, ptr %22, align 4, !tbaa !121
  %23 = getelementptr inbounds nuw i8, ptr %4, i64 176
  store i64 4, ptr %23, align 8, !tbaa !122
  %24 = getelementptr inbounds nuw i8, ptr %4, i64 184
  store i64 4, ptr %24, align 8, !tbaa !123
  %25 = call i64 @crc32_z(i64 noundef 0, ptr noundef null, i64 noundef 0) #18
  %26 = getelementptr inbounds nuw i8, ptr %4, i64 192
  store i64 %25, ptr %26, align 8, !tbaa !118
  %27 = getelementptr inbounds nuw i8, ptr %4, i64 204
  store i32 0, ptr %27, align 4, !tbaa !124
  %28 = getelementptr inbounds nuw i8, ptr %4, i64 208
  store i64 0, ptr %28, align 8, !tbaa !156
  %29 = getelementptr inbounds nuw i8, ptr %4, i64 216
  store ptr @zlib_gunzip_end, ptr %29, align 8, !tbaa !131
  %30 = call ptr @rb_default_external_encoding() #18
  %31 = getelementptr inbounds nuw i8, ptr %4, i64 224
  store ptr %30, ptr %31, align 8, !tbaa !141
  %32 = getelementptr inbounds nuw i8, ptr %4, i64 232
  %33 = getelementptr inbounds nuw i8, ptr %4, i64 200
  store i32 0, ptr %33, align 8, !tbaa !138
  %34 = getelementptr inbounds nuw i8, ptr %4, i64 248
  call void @llvm.memset.p0.i64(ptr noundef nonnull align 8 dereferenceable(16) %32, i8 0, i64 16, i1 false)
  store i64 4, ptr %34, align 8, !tbaa !143
  %35 = getelementptr inbounds nuw i8, ptr %4, i64 256
  store i64 4, ptr %35, align 8, !tbaa !195
  %36 = call i32 @inflateInit2_(ptr noundef nonnull %10, i32 noundef -15, ptr noundef nonnull @.str.20, i32 noundef 112) #18
  %.not = icmp eq i32 %36, 0
  br i1 %.not, label %39, label %37

37:                                               ; preds = %2
  %38 = load ptr, ptr %14, align 8, !tbaa !136
  call fastcc void @raise_zlib_error(i32 noundef %36, ptr noundef %38) #20
  unreachable

39:                                               ; preds = %2
  store i64 36, ptr %19, align 8, !tbaa !117
  %40 = load i64, ptr %3, align 8, !tbaa !6
  store i64 %40, ptr %7, align 8, !tbaa !154
  %41 = load i64, ptr %4, align 8, !tbaa !113
  %42 = or i64 %41, 1
  store i64 %42, ptr %4, align 8, !tbaa !113
  %43 = ptrtoint ptr %4 to i64
  %44 = call i64 @rb_ensure(ptr noundef nonnull @zlib_gunzip_run, i64 noundef %43, ptr noundef nonnull @zlib_gzip_ensure, i64 noundef %43) #18
  call void @llvm.lifetime.end.p0(i64 264, ptr nonnull %4) #18
  ret i64 %44
}